target datalayout = "e-m:e-p270:32:32-p271:32:32-p272:64:64-i64:64-i128:128-f80:128-n8:16:32:64-S128"
target triple = "x86_64-pc-linux-gnu"

%struct.pmix_object_t = type { %union.pthread_mutex_t, ptr, i32, %struct.pmix_tma }
%union.pthread_mutex_t = type { %struct.__pthread_mutex_s }
%struct.__pthread_mutex_s = type { i32, i32, i32, i32, i32, i16, i16, %struct.__pthread_internal_list }
%struct.__pthread_internal_list = type { ptr, ptr }
%struct.pmix_tma = type { ptr, ptr, ptr, ptr, ptr, ptr, ptr, ptr }
%struct.timeval = type { i64, i64 }
%struct.pmix_list_t = type { %struct.pmix_object_t, %struct.pmix_list_item_t, i64 }
%struct.pmix_list_item_t = type { %struct.pmix_object_t, ptr, ptr, i32 }
%struct.pmix_lock_t = type { i32, %struct.pmix_mutex_t, %union.pthread_cond_t, i8 }
%struct.pmix_mutex_t = type { %struct.pmix_object_t, %union.pthread_mutex_t }
%union.pthread_cond_t = type { %struct.__pthread_cond_s }
%struct.__pthread_cond_s = type { %union.__atomic_wide_counter, %union.__atomic_wide_counter, [2 x i32], [2 x i32], i32, i32, [2 x i32] }
%union.__atomic_wide_counter = type { i64 }
%struct.pmix_local_query_caddy_t = type { %struct.pmix_query_caddy_t, i64, ptr, i64, ptr, ptr, ptr, i64 }
%struct.pmix_query_caddy_t = type { %struct.pmix_object_t, %struct.event, %struct.pmix_lock_t, i8, i32, ptr, i64, ptr, i64, ptr, ptr, i64, i64, %struct.pmix_list_t, i64, i64, %struct.pmix_byte_object, ptr, ptr, ptr, ptr, ptr, ptr }
%struct.event = type { %struct.event_callback, %union.anon.0, i32, ptr, %union.anon.2, i16, i16, %struct.timeval }
%struct.event_callback = type { %struct.anon, i16, i8, i8, %union.anon, ptr }
%struct.anon = type { ptr, ptr }
%union.anon = type { ptr }
%union.anon.0 = type { %struct.anon.1 }
%struct.anon.1 = type { ptr, ptr }
%union.anon.2 = type { %struct.anon.3 }
%struct.anon.3 = type { %struct.anon.4, %struct.timeval }
%struct.anon.4 = type { ptr, ptr }
%struct.pmix_byte_object = type { ptr, i64 }

; Function Attrs: nounwind uwtable
define internal void @qldes(ptr noundef %0) #0 {
  %2 = alloca ptr, align 8
  store ptr %0, ptr %2, align 8, !tbaa !3
  %3 = load ptr, ptr %2, align 8, !tbaa !3
  %4 = getelementptr inbounds nuw %struct.pmix_local_query_caddy_t, ptr %3, i32 0, i32 0
  %5 = getelementptr inbounds nuw %struct.pmix_query_caddy_t, ptr %4, i32 0, i32 5
  %6 = load ptr, ptr %5, align 8, !tbaa !40
  %7 = icmp ne ptr null, %6
  br i1 %7, label %8, label %21

8:                                                ; preds = %1
  br label %9

9:                                                ; preds = %8
  %10 = load ptr, ptr %2, align 8, !tbaa !3
  %11 = getelementptr inbounds nuw %struct.pmix_local_query_caddy_t, ptr %10, i32 0, i32 0
  %12 = getelementptr inbounds nuw %struct.pmix_query_caddy_t, ptr %11, i32 0, i32 5
  %13 = load ptr, ptr %12, align 8, !tbaa !40
  call void @PMIx_Query_release(ptr noundef %13)
  %14 = load ptr, ptr %2, align 8, !tbaa !3
  %15 = getelementptr inbounds nuw %struct.pmix_local_query_caddy_t, ptr %14, i32 0, i32 0
  %16 = getelementptr inbounds nuw %struct.pmix_query_caddy_t, ptr %15, i32 0, i32 5
  store ptr null, ptr %16, align 8, !tbaa !40
  br label %17

17:                                               ; preds = %9
  %18 = load ptr, ptr %2, align 8, !tbaa !3
  %19 = getelementptr inbounds nuw %struct.pmix_local_query_caddy_t, ptr %18, i32 0, i32 0
  %20 = getelementptr inbounds nuw %struct.pmix_query_caddy_t, ptr %19, i32 0, i32 5
  store ptr null, ptr %20, align 8, !tbaa !40
  br label %21

21:                                               ; preds = %17, %1
  %22 = load ptr, ptr %2, align 8, !tbaa !3
  %23 = getelementptr inbounds nuw %struct.pmix_local_query_caddy_t, ptr %22, i32 0, i32 1
  store i64 0, ptr %23, align 8, !tbaa !7
  %24 = load ptr, ptr %2, align 8, !tbaa !3
  %25 = getelementptr inbounds nuw %struct.pmix_local_query_caddy_t, ptr %24, i32 0, i32 4
  store ptr null, ptr %25, align 8, !tbaa !34
  %26 = load ptr, ptr %2, align 8, !tbaa !3
  %27 = getelementptr inbounds nuw %struct.pmix_local_query_caddy_t, ptr %26, i32 0, i32 5
  store ptr null, ptr %27, align 8, !tbaa !35
  %28 = load ptr, ptr %2, align 8, !tbaa !3
  %29 = getelementptr inbounds nuw %struct.pmix_local_query_caddy_t, ptr %28, i32 0, i32 2
  store ptr null, ptr %29, align 8, !tbaa !36
  %30 = load ptr, ptr %2, align 8, !tbaa !3
  %31 = getelementptr inbounds nuw %struct.pmix_local_query_caddy_t, ptr %30, i32 0, i32 3
  store i64 0, ptr %31, align 8, !tbaa !37
  %32 = load ptr, ptr %2, align 8, !tbaa !3
  %33 = getelementptr inbounds nuw %struct.pmix_local_query_caddy_t, ptr %32, i32 0, i32 6
  %34 = load ptr, ptr %33, align 8, !tbaa !38
  %35 = icmp ne ptr null, %34
  br i1 %35, label %36, label %47

36:                                               ; preds = %21
  br label %37

37:                                               ; preds = %36
  %38 = load ptr, ptr %2, align 8, !tbaa !3
  %39 = getelementptr inbounds nuw %struct.pmix_local_query_caddy_t, ptr %38, i32 0, i32 6
  %40 = load ptr, ptr %39, align 8, !tbaa !38
  %41 = load ptr, ptr %2, align 8, !tbaa !3
  %42 = getelementptr inbounds nuw %struct.pmix_local_query_caddy_t, ptr %41, i32 0, i32 7
  %43 = load i64, ptr %42, align 8, !tbaa !39
  call void @PMIx_Info_free(ptr noundef %40, i64 noundef %43)
  %44 = load ptr, ptr %2, align 8, !tbaa !3
  %45 = getelementptr inbounds nuw %struct.pmix_local_query_caddy_t, ptr %44, i32 0, i32 6
  store ptr null, ptr %45, align 8, !tbaa !38
  br label %46

46:                                               ; preds = %37
  br label %47

47:                                               ; preds = %46, %21
  %48 = load ptr, ptr %2, align 8, !tbaa !3
  %49 = getelementptr inbounds nuw %struct.pmix_local_query_caddy_t, ptr %48, i32 0, i32 6
  store ptr null, ptr %49, align 8, !tbaa !38
  %50 = load ptr, ptr %2, align 8, !tbaa !3
  %51 = getelementptr inbounds nuw %struct.pmix_local_query_caddy_t, ptr %50, i32 0, i32 7
  store i64 0, ptr %51, align 8, !tbaa !39
  ret void
}