; Function Attrs: nounwind uwtable
define internal void @qldes(ptr noundef captures(none) initializes((896, 936)) %0) #1 {
  %2 = getelementptr inbounds nuw i8, ptr %0, i64 480
  %3 = load ptr, ptr %2, align 8, !tbaa !3
  %.not = icmp eq ptr %3, null
  br i1 %.not, label %5, label %4

4:                                                ; preds = %1
  tail call void @PMIx_Query_release(ptr noundef nonnull %3) #14
  store ptr null, ptr %2, align 8, !tbaa !3
  br label %5

5:                                                ; preds = %4, %1
  %6 = getelementptr inbounds nuw i8, ptr %0, i64 896
  %7 = getelementptr inbounds nuw i8, ptr %0, i64 936
  tail call void @llvm.memset.p0.i64(ptr noundef nonnull align 8 dereferenceable(40) %6, i8 0, i64 40, i1 false)
  %8 = load ptr, ptr %7, align 8, !tbaa !33
  %.not16 = icmp eq ptr %8, null
  br i1 %.not16, label %12, label %9

9:                                                ; preds = %5
  %10 = getelementptr inbounds nuw i8, ptr %0, i64 944
  %11 = load i64, ptr %10, align 8, !tbaa !34
  tail call void @PMIx_Info_free(ptr noundef nonnull %8, i64 noundef %11) #14
  br label %12

12:                                               ; preds = %9, %5
  tail call void @llvm.memset.p0.i64(ptr noundef nonnull align 8 dereferenceable(16) %7, i8 0, i64 16, i1 false)
  ret void
}